target datalayout = "e-m:e-p270:32:32-p271:32:32-p272:64:64-i64:64-i128:128-f80:128-n8:16:32:64-S128"
target triple = "x86_64-pc-linux-gnu"

%struct._value_string_ext = type { ptr, i32, i32, ptr, ptr }
%struct._wmem_tree_key_t = type { i32, ptr }
%struct.nstime_t = type { i64, i32 }
%struct._packet_info = type { ptr, ptr, i32, i32, %struct.nstime_t, %struct.nstime_t, %struct.nstime_t, i8, ptr, ptr, ptr, ptr, %struct._address, %struct._address, %struct._address, %struct._address, %struct._address, %struct._address, i32, ptr, i8, [3 x i8], %struct.anon, i32, i32, i32, i32, ptr, i8, ptr, ptr, i16, i16, i32, i32, i16, i32, i32, ptr, ptr, ptr, i8, i8, i16, i16, i16, i32, i16, i16, ptr, ptr, ptr, ptr, ptr, i32, i32 }
%struct._address = type { i32, i32, ptr, ptr }
%struct.anon = type { i8, [3 x i8] }
%struct._frame_data = type <{ i32, i32, i32, i32, i32, [4 x i8], i64, ptr, ptr, ptr, i8, i16, [5 x i8], %struct.nstime_t, %struct.nstime_t, i32, i32 }>
%struct._bluetooth_data_t = type { i32, i32, ptr, ptr, ptr, ptr, ptr, ptr, ptr, ptr, ptr, ptr, ptr, i32, %union.anon }
%union.anon = type { ptr }
%struct._bluetooth_hci_summary_tap_t = type { i32, i32, i16, i8, i8, i8, i8, i8, i8, ptr, i32 }
%struct._connection_mode_t = type { i32, i32 }

@hf_bthci_evt_connection_handle = internal global i32 0, align 4
@hf_bthci_evt_status = internal global i32 0, align 4
@bthci_cmd_status_vals_ext = external global %struct._value_string_ext, align 8
@hf_bthci_evt_curr_mode = internal global i32 0, align 4
@hf_bthci_evt_interval = internal global i32 0, align 4
@.str.1819 = private unnamed_addr constant [15 x i8] c"Unknown 0x%02x\00", align 1
@bluetooth_hci_summary_tap = external global i32, align 4

; Function Attrs: null_pointer_is_valid sspstrong uwtable
define internal void @send_hci_summary_status_tap(i8 noundef zeroext %0, ptr noundef %1, ptr noundef %2) #1 {
  %4 = alloca i8, align 1
  %5 = alloca ptr, align 8
  %6 = alloca ptr, align 8
  %7 = alloca ptr, align 8
  store i8 %0, ptr %4, align 1
  store ptr %1, ptr %5, align 8
  store ptr %2, ptr %6, align 8
  %8 = load i32, ptr @bluetooth_hci_summary_tap, align 4
  %9 = call zeroext i1 @have_tap_listener(i32 noundef %8)
  br i1 %9, label %10, label %47

10:                                               ; preds = %3
  call void @llvm.lifetime.start.p0(i64 8, ptr %7) #11
  %11 = load ptr, ptr %5, align 8
  %12 = getelementptr inbounds nuw %struct._packet_info, ptr %11, i32 0, i32 51
  %13 = load ptr, ptr %12, align 8
  %14 = call noalias ptr @wmem_alloc(ptr noundef %13, i64 noundef 32) #13
  store ptr %14, ptr %7, align 8
  %15 = load ptr, ptr %6, align 8
  %16 = getelementptr inbounds nuw %struct._bluetooth_data_t, ptr %15, i32 0, i32 0
  %17 = load i32, ptr %16, align 8
  %18 = load ptr, ptr %7, align 8
  %19 = getelementptr inbounds nuw %struct._bluetooth_hci_summary_tap_t, ptr %18, i32 0, i32 0
  store i32 %17, ptr %19, align 8
  %20 = load ptr, ptr %6, align 8
  %21 = getelementptr inbounds nuw %struct._bluetooth_data_t, ptr %20, i32 0, i32 1
  %22 = load i32, ptr %21, align 4
  %23 = load ptr, ptr %7, align 8
  %24 = getelementptr inbounds nuw %struct._bluetooth_hci_summary_tap_t, ptr %23, i32 0, i32 1
  store i32 %22, ptr %24, align 4
  %25 = load ptr, ptr %7, align 8
  %26 = getelementptr inbounds nuw %struct._bluetooth_hci_summary_tap_t, ptr %25, i32 0, i32 10
  store i32 7, ptr %26, align 8
  %27 = load i8, ptr %4, align 1
  %28 = load ptr, ptr %7, align 8
  %29 = getelementptr inbounds nuw %struct._bluetooth_hci_summary_tap_t, ptr %28, i32 0, i32 6
  store i8 %27, ptr %29, align 1
  %30 = load i8, ptr %4, align 1
  %31 = zext i8 %30 to i32
  %32 = call ptr @try_val_to_str_ext(i32 noundef %31, ptr noundef @bthci_cmd_status_vals_ext)
  %33 = icmp ne ptr %32, null
  br i1 %33, label %34, label %40

34:                                               ; preds = %10
  %35 = load i8, ptr %4, align 1
  %36 = zext i8 %35 to i32
  %37 = call ptr @val_to_str_ext(i32 noundef %36, ptr noundef @bthci_cmd_status_vals_ext, ptr noundef @.str.1819)
  %38 = load ptr, ptr %7, align 8
  %39 = getelementptr inbounds nuw %struct._bluetooth_hci_summary_tap_t, ptr %38, i32 0, i32 9
  store ptr %37, ptr %39, align 8
  br label %43

40:                                               ; preds = %10
  %41 = load ptr, ptr %7, align 8
  %42 = getelementptr inbounds nuw %struct._bluetooth_hci_summary_tap_t, ptr %41, i32 0, i32 9
  store ptr null, ptr %42, align 8
  br label %43

43:                                               ; preds = %40, %34
  %44 = load i32, ptr @bluetooth_hci_summary_tap, align 4
  %45 = load ptr, ptr %5, align 8
  %46 = load ptr, ptr %7, align 8
  call void @tap_queue_packet(i32 noundef %44, ptr noundef %45, ptr noundef %46)
  call void @llvm.lifetime.end.p0(i64 8, ptr %7) #11
  br label %47

47:                                               ; preds = %43, %3
  ret void
}

; Function Attrs: null_pointer_is_valid sspstrong uwtable
define internal i32 @dissect_bthci_evt_mode_change(ptr noundef %0, i32 noundef %1, ptr noundef %2, ptr noundef %3, ptr noundef %4) #1 {
  %6 = alloca ptr, align 8
  %7 = alloca i32, align 4
  %8 = alloca ptr, align 8
  %9 = alloca ptr, align 8
  %10 = alloca ptr, align 8
  %11 = alloca i32, align 4
  %12 = alloca i8, align 1
  %13 = alloca i8, align 1
  %14 = alloca [5 x %struct._wmem_tree_key_t], align 16
  %15 = alloca i32, align 4
  %16 = alloca i32, align 4
  %17 = alloca i32, align 4
  %18 = alloca ptr, align 8
  store ptr %0, ptr %6, align 8
  store i32 %1, ptr %7, align 4
  store ptr %2, ptr %8, align 8
  store ptr %3, ptr %9, align 8
  store ptr %4, ptr %10, align 8
  call void @llvm.lifetime.start.p0(i64 4, ptr %11) #11
  call void @llvm.lifetime.start.p0(i64 1, ptr %12) #11
  call void @llvm.lifetime.start.p0(i64 1, ptr %13) #11
  %19 = load ptr, ptr %9, align 8
  %20 = load i32, ptr @hf_bthci_evt_status, align 4
  %21 = load ptr, ptr %6, align 8
  %22 = load i32, ptr %7, align 4
  %23 = call ptr @proto_tree_add_item(ptr noundef %19, i32 noundef %20, ptr noundef %21, i32 noundef %22, i32 noundef 1, i32 noundef -2147483648)
  %24 = load ptr, ptr %6, align 8
  %25 = load i32, ptr %7, align 4
  %26 = call zeroext i8 @tvb_get_uint8(ptr noundef %24, i32 noundef %25)
  store i8 %26, ptr %13, align 1
  %27 = load i8, ptr %13, align 1
  %28 = load ptr, ptr %8, align 8
  %29 = load ptr, ptr %10, align 8
  call void @send_hci_summary_status_tap(i8 noundef zeroext %27, ptr noundef %28, ptr noundef %29)
  %30 = load i32, ptr %7, align 4
  %31 = add i32 %30, 1
  store i32 %31, ptr %7, align 4
  %32 = load ptr, ptr %9, align 8
  %33 = load i32, ptr @hf_bthci_evt_connection_handle, align 4
  %34 = load ptr, ptr %6, align 8
  %35 = load i32, ptr %7, align 4
  %36 = call ptr @proto_tree_add_item(ptr noundef %32, i32 noundef %33, ptr noundef %34, i32 noundef %35, i32 noundef 2, i32 noundef -2147483648)
  %37 = load ptr, ptr %6, align 8
  %38 = load i32, ptr %7, align 4
  %39 = call zeroext i16 @tvb_get_letohs(ptr noundef %37, i32 noundef %38)
  %40 = zext i16 %39 to i32
  %41 = and i32 %40, 4095
  store i32 %41, ptr %11, align 4
  %42 = load i32, ptr %7, align 4
  %43 = add i32 %42, 2
  store i32 %43, ptr %7, align 4
  %44 = load ptr, ptr %9, align 8
  %45 = load i32, ptr @hf_bthci_evt_curr_mode, align 4
  %46 = load ptr, ptr %6, align 8
  %47 = load i32, ptr %7, align 4
  %48 = call ptr @proto_tree_add_item(ptr noundef %44, i32 noundef %45, ptr noundef %46, i32 noundef %47, i32 noundef 1, i32 noundef -2147483648)
  %49 = load ptr, ptr %6, align 8
  %50 = load i32, ptr %7, align 4
  %51 = call zeroext i8 @tvb_get_uint8(ptr noundef %49, i32 noundef %50)
  store i8 %51, ptr %12, align 1
  %52 = load i32, ptr %7, align 4
  %53 = add i32 %52, 1
  store i32 %53, ptr %7, align 4
  %54 = load ptr, ptr %9, align 8
  %55 = load i32, ptr @hf_bthci_evt_interval, align 4
  %56 = load ptr, ptr %6, align 8
  %57 = load i32, ptr %7, align 4
  %58 = call ptr @proto_tree_add_item(ptr noundef %54, i32 noundef %55, ptr noundef %56, i32 noundef %57, i32 noundef 2, i32 noundef -2147483648)
  %59 = load i32, ptr %7, align 4
  %60 = add i32 %59, 2
  store i32 %60, ptr %7, align 4
  %61 = load ptr, ptr %8, align 8
  %62 = getelementptr inbounds nuw %struct._packet_info, ptr %61, i32 0, i32 8
  %63 = load ptr, ptr %62, align 8
  %64 = getelementptr inbounds nuw %struct._frame_data, ptr %63, i32 0, i32 11
  %65 = load i16, ptr %64, align 1
  %66 = lshr i16 %65, 3
  %67 = and i16 %66, 1
  %68 = zext i16 %67 to i32
  %69 = icmp ne i32 %68, 0
  br i1 %69, label %118, label %70

70:                                               ; preds = %5
  %71 = load i8, ptr %13, align 1
  %72 = zext i8 %71 to i32
  %73 = icmp eq i32 %72, 0
  br i1 %73, label %74, label %118

74:                                               ; preds = %70
  call void @llvm.lifetime.start.p0(i64 80, ptr %14) #11
  call void @llvm.lifetime.start.p0(i64 4, ptr %15) #11
  call void @llvm.lifetime.start.p0(i64 4, ptr %16) #11
  call void @llvm.lifetime.start.p0(i64 4, ptr %17) #11
  call void @llvm.lifetime.start.p0(i64 8, ptr %18) #11
  %75 = load ptr, ptr %10, align 8
  %76 = getelementptr inbounds nuw %struct._bluetooth_data_t, ptr %75, i32 0, i32 0
  %77 = load i32, ptr %76, align 8
  store i32 %77, ptr %15, align 4
  %78 = load ptr, ptr %10, align 8
  %79 = getelementptr inbounds nuw %struct._bluetooth_data_t, ptr %78, i32 0, i32 1
  %80 = load i32, ptr %79, align 4
  store i32 %80, ptr %16, align 4
  %81 = load ptr, ptr %8, align 8
  %82 = getelementptr inbounds nuw %struct._packet_info, ptr %81, i32 0, i32 3
  %83 = load i32, ptr %82, align 4
  store i32 %83, ptr %17, align 4
  %84 = getelementptr [5 x %struct._wmem_tree_key_t], ptr %14, i64 0, i64 0
  %85 = getelementptr inbounds nuw %struct._wmem_tree_key_t, ptr %84, i32 0, i32 0
  store i32 1, ptr %85, align 16
  %86 = getelementptr [5 x %struct._wmem_tree_key_t], ptr %14, i64 0, i64 0
  %87 = getelementptr inbounds nuw %struct._wmem_tree_key_t, ptr %86, i32 0, i32 1
  store ptr %15, ptr %87, align 8
  %88 = getelementptr [5 x %struct._wmem_tree_key_t], ptr %14, i64 0, i64 1
  %89 = getelementptr inbounds nuw %struct._wmem_tree_key_t, ptr %88, i32 0, i32 0
  store i32 1, ptr %89, align 16
  %90 = getelementptr [5 x %struct._wmem_tree_key_t], ptr %14, i64 0, i64 1
  %91 = getelementptr inbounds nuw %struct._wmem_tree_key_t, ptr %90, i32 0, i32 1
  store ptr %16, ptr %91, align 8
  %92 = getelementptr [5 x %struct._wmem_tree_key_t], ptr %14, i64 0, i64 2
  %93 = getelementptr inbounds nuw %struct._wmem_tree_key_t, ptr %92, i32 0, i32 0
  store i32 1, ptr %93, align 16
  %94 = getelementptr [5 x %struct._wmem_tree_key_t], ptr %14, i64 0, i64 2
  %95 = getelementptr inbounds nuw %struct._wmem_tree_key_t, ptr %94, i32 0, i32 1
  store ptr %11, ptr %95, align 8
  %96 = getelementptr [5 x %struct._wmem_tree_key_t], ptr %14, i64 0, i64 3
  %97 = getelementptr inbounds nuw %struct._wmem_tree_key_t, ptr %96, i32 0, i32 0
  store i32 1, ptr %97, align 16
  %98 = getelementptr [5 x %struct._wmem_tree_key_t], ptr %14, i64 0, i64 3
  %99 = getelementptr inbounds nuw %struct._wmem_tree_key_t, ptr %98, i32 0, i32 1
  store ptr %17, ptr %99, align 8
  %100 = getelementptr [5 x %struct._wmem_tree_key_t], ptr %14, i64 0, i64 4
  %101 = getelementptr inbounds nuw %struct._wmem_tree_key_t, ptr %100, i32 0, i32 0
  store i32 0, ptr %101, align 16
  %102 = getelementptr [5 x %struct._wmem_tree_key_t], ptr %14, i64 0, i64 4
  %103 = getelementptr inbounds nuw %struct._wmem_tree_key_t, ptr %102, i32 0, i32 1
  store ptr null, ptr %103, align 8
  %104 = call ptr @wmem_file_scope()
  %105 = call noalias ptr @wmem_alloc(ptr noundef %104, i64 noundef 8) #13
  store ptr %105, ptr %18, align 8
  %106 = load i8, ptr %12, align 1
  %107 = zext i8 %106 to i32
  %108 = load ptr, ptr %18, align 8
  %109 = getelementptr inbounds nuw %struct._connection_mode_t, ptr %108, i32 0, i32 0
  store i32 %107, ptr %109, align 4
  %110 = load i32, ptr %17, align 4
  %111 = load ptr, ptr %18, align 8
  %112 = getelementptr inbounds nuw %struct._connection_mode_t, ptr %111, i32 0, i32 1
  store i32 %110, ptr %112, align 4
  %113 = load ptr, ptr %10, align 8
  %114 = getelementptr inbounds nuw %struct._bluetooth_data_t, ptr %113, i32 0, i32 5
  %115 = load ptr, ptr %114, align 8
  %116 = getelementptr inbounds [5 x %struct._wmem_tree_key_t], ptr %14, i64 0, i64 0
  %117 = load ptr, ptr %18, align 8
  call void @wmem_tree_insert32_array(ptr noundef %115, ptr noundef %116, ptr noundef %117)
  call void @llvm.lifetime.end.p0(i64 8, ptr %18) #11
  call void @llvm.lifetime.end.p0(i64 4, ptr %17) #11
  call void @llvm.lifetime.end.p0(i64 4, ptr %16) #11
  call void @llvm.lifetime.end.p0(i64 4, ptr %15) #11
  call void @llvm.lifetime.end.p0(i64 80, ptr %14) #11
  br label %118

118:                                              ; preds = %74, %70, %5
  %119 = load i32, ptr %7, align 4
  call void @llvm.lifetime.end.p0(i64 1, ptr %13) #11
  call void @llvm.lifetime.end.p0(i64 1, ptr %12) #11
  call void @llvm.lifetime.end.p0(i64 4, ptr %11) #11
  ret i32 %119
}