; Function Attrs: null_pointer_is_valid sspstrong uwtable
define internal fastcc void @dissect_bthci_evt_mode_change(ptr noundef %0, ptr noundef %1, ptr noundef %2, ptr noundef nonnull readonly captures(none) %3) unnamed_addr #1 {
  %5 = alloca i32, align 4
  %6 = alloca [5 x %struct._wmem_tree_key_t], align 16
  %7 = alloca i32, align 4
  %8 = alloca i32, align 4
  %9 = alloca i32, align 4
  call void @llvm.lifetime.start.p0(i64 4, ptr nonnull %5) #9
  %10 = load i32, ptr @hf_bthci_evt_status, align 4
  %11 = tail call ptr @proto_tree_add_item(ptr noundef %2, i32 noundef %10, ptr noundef %0, i32 noundef 2, i32 noundef 1, i32 noundef -2147483648)
  %12 = tail call zeroext i8 @tvb_get_uint8(ptr noundef %0, i32 noundef 2)
  %13 = load i32, ptr @bluetooth_hci_summary_tap, align 4
  %14 = tail call zeroext i1 @have_tap_listener(i32 noundef %13)
  br i1 %14, label %15, label %send_hci_summary_status_tap.exit

15:                                               ; preds = %4
  %16 = getelementptr inbounds nuw i8, ptr %1, i64 408
  %17 = load ptr, ptr %16, align 8
  %18 = tail call noalias dereferenceable_or_null(32) ptr @wmem_alloc(ptr noundef %17, i64 noundef 32) #11
  %19 = load i32, ptr %3, align 8
  store i32 %19, ptr %18, align 8
  %20 = getelementptr inbounds nuw i8, ptr %3, i64 4
  %21 = load i32, ptr %20, align 4
  %22 = getelementptr inbounds nuw i8, ptr %18, i64 4
  store i32 %21, ptr %22, align 4
  %23 = getelementptr inbounds nuw i8, ptr %18, i64 24
  store i32 7, ptr %23, align 8
  %24 = getelementptr inbounds nuw i8, ptr %18, i64 13
  store i8 %12, ptr %24, align 1
  %25 = zext i8 %12 to i32
  %26 = tail call ptr @try_val_to_str_ext(i32 noundef %25, ptr noundef nonnull @bthci_cmd_status_vals_ext)
  %.not.i = icmp eq ptr %26, null
  br i1 %.not.i, label %29, label %27

27:                                               ; preds = %15
  %28 = tail call ptr @val_to_str_ext(i32 noundef %25, ptr noundef nonnull @bthci_cmd_status_vals_ext, ptr noundef nonnull @.str.1819)
  br label %29

29:                                               ; preds = %27, %15
  %.sink.i = phi ptr [ %28, %27 ], [ null, %15 ]
  %30 = getelementptr inbounds nuw i8, ptr %18, i64 16
  store ptr %.sink.i, ptr %30, align 8
  %31 = load i32, ptr @bluetooth_hci_summary_tap, align 4
  tail call void @tap_queue_packet(i32 noundef %31, ptr noundef %1, ptr noundef %18)
  br label %send_hci_summary_status_tap.exit

send_hci_summary_status_tap.exit:                 ; preds = %4, %29
  %32 = load i32, ptr @hf_bthci_evt_connection_handle, align 4
  %33 = tail call ptr @proto_tree_add_item(ptr noundef %2, i32 noundef %32, ptr noundef %0, i32 noundef 3, i32 noundef 2, i32 noundef -2147483648)
  %34 = tail call zeroext i16 @tvb_get_letohs(ptr noundef %0, i32 noundef 3)
  %35 = and i16 %34, 4095
  %36 = zext nneg i16 %35 to i32
  store i32 %36, ptr %5, align 4
  %37 = load i32, ptr @hf_bthci_evt_curr_mode, align 4
  %38 = tail call ptr @proto_tree_add_item(ptr noundef %2, i32 noundef %37, ptr noundef %0, i32 noundef 5, i32 noundef 1, i32 noundef -2147483648)
  %39 = tail call zeroext i8 @tvb_get_uint8(ptr noundef %0, i32 noundef 5)
  %40 = load i32, ptr @hf_bthci_evt_interval, align 4
  %41 = tail call ptr @proto_tree_add_item(ptr noundef %2, i32 noundef %40, ptr noundef %0, i32 noundef 6, i32 noundef 2, i32 noundef -2147483648)
  %42 = getelementptr inbounds nuw i8, ptr %1, i64 80
  %43 = load ptr, ptr %42, align 8
  %44 = getelementptr inbounds nuw i8, ptr %43, i64 57
  %45 = load i16, ptr %44, align 1
  %46 = and i16 %45, 8
  %47 = icmp eq i16 %46, 0
  %48 = icmp eq i8 %12, 0
  %or.cond = and i1 %48, %47
  br i1 %or.cond, label %49, label %71

49:                                               ; preds = %send_hci_summary_status_tap.exit
  call void @llvm.lifetime.start.p0(i64 80, ptr nonnull %6) #9
  call void @llvm.lifetime.start.p0(i64 4, ptr nonnull %7) #9
  call void @llvm.lifetime.start.p0(i64 4, ptr nonnull %8) #9
  call void @llvm.lifetime.start.p0(i64 4, ptr nonnull %9) #9
  %50 = load i32, ptr %3, align 8
  store i32 %50, ptr %7, align 4
  %51 = getelementptr inbounds nuw i8, ptr %3, i64 4
  %52 = load i32, ptr %51, align 4
  store i32 %52, ptr %8, align 4
  %53 = getelementptr inbounds nuw i8, ptr %1, i64 20
  %54 = load i32, ptr %53, align 4
  store i32 %54, ptr %9, align 4
  store i32 1, ptr %6, align 16
  %55 = getelementptr inbounds nuw i8, ptr %6, i64 8
  store ptr %7, ptr %55, align 8
  %56 = getelementptr inbounds nuw i8, ptr %6, i64 16
  store i32 1, ptr %56, align 16
  %57 = getelementptr inbounds nuw i8, ptr %6, i64 24
  store ptr %8, ptr %57, align 8
  %58 = getelementptr inbounds nuw i8, ptr %6, i64 32
  store i32 1, ptr %58, align 16
  %59 = getelementptr inbounds nuw i8, ptr %6, i64 40
  store ptr %5, ptr %59, align 8
  %60 = getelementptr inbounds nuw i8, ptr %6, i64 48
  store i32 1, ptr %60, align 16
  %61 = getelementptr inbounds nuw i8, ptr %6, i64 56
  store ptr %9, ptr %61, align 8
  %62 = getelementptr inbounds nuw i8, ptr %6, i64 64
  store i32 0, ptr %62, align 16
  %63 = getelementptr inbounds nuw i8, ptr %6, i64 72
  store ptr null, ptr %63, align 8
  %64 = call ptr @wmem_file_scope()
  %65 = call noalias dereferenceable_or_null(8) ptr @wmem_alloc(ptr noundef %64, i64 noundef 8) #11
  %66 = zext i8 %39 to i32
  store i32 %66, ptr %65, align 4
  %67 = load i32, ptr %9, align 4
  %68 = getelementptr inbounds nuw i8, ptr %65, i64 4
  store i32 %67, ptr %68, align 4
  %69 = getelementptr inbounds nuw i8, ptr %3, i64 32
  %70 = load ptr, ptr %69, align 8
  call void @wmem_tree_insert32_array(ptr noundef %70, ptr noundef nonnull %6, ptr noundef %65)
  call void @llvm.lifetime.end.p0(i64 4, ptr nonnull %9) #9
  call void @llvm.lifetime.end.p0(i64 4, ptr nonnull %8) #9
  call void @llvm.lifetime.end.p0(i64 4, ptr nonnull %7) #9
  call void @llvm.lifetime.end.p0(i64 80, ptr nonnull %6) #9
  br label %71

71:                                               ; preds = %49, %send_hci_summary_status_tap.exit
  call void @llvm.lifetime.end.p0(i64 4, ptr nonnull %5) #9
  ret void
}